; Function Attrs: nounwind uwtable
define hidden void @av1_loop_restoration_copy_planes(ptr noundef readonly captures(none) %0, ptr noundef readonly captures(none) %1, i32 noundef %2) local_unnamed_addr #2 {
  %4 = icmp sgt i32 %2, 0
  br i1 %4, label %.lr.ph, label %._crit_edge

.lr.ph:                                           ; preds = %3
  %5 = getelementptr inbounds nuw i8, ptr %1, i64 23608
  %6 = getelementptr i8, ptr %0, i64 64
  %7 = getelementptr inbounds nuw i8, ptr %0, i64 232
  %8 = getelementptr inbounds nuw i8, ptr %0, i64 224
  %wide.trip.count = zext nneg i32 %2 to i64
  br label %9

9:                                                ; preds = %.lr.ph, %19
  %indvars.iv = phi i64 [ 0, %.lr.ph ], [ %indvars.iv.next, %19 ]
  %10 = getelementptr inbounds nuw [3 x %struct.RestorationInfo], ptr %5, i64 0, i64 %indvars.iv
  %11 = load i32, ptr %10, align 8
  %12 = icmp eq i32 %11, 0
  br i1 %12, label %19, label %13

13:                                               ; preds = %9
  %.idx = mul nuw nsw i64 %indvars.iv, 72
  %14 = getelementptr i8, ptr %6, i64 %.idx
  %.sroa.0.0.copyload = load i32, ptr %14, align 8
  %.sroa.2.0..sroa_idx = getelementptr inbounds nuw i8, ptr %14, i64 4
  %.sroa.2.0.copyload = load i32, ptr %.sroa.2.0..sroa_idx, align 4
  %.sroa.3.0..sroa_idx = getelementptr inbounds nuw i8, ptr %14, i64 8
  %.sroa.3.0.copyload = load i32, ptr %.sroa.3.0..sroa_idx, align 8
  %.sroa.4.0..sroa_idx = getelementptr inbounds nuw i8, ptr %14, i64 12
  %.sroa.4.0.copyload = load i32, ptr %.sroa.4.0..sroa_idx, align 4
  %15 = getelementptr inbounds nuw [3 x ptr], ptr @av1_loop_restoration_copy_planes.copy_funs, i64 0, i64 %indvars.iv
  %16 = load ptr, ptr %15, align 8
  %17 = load ptr, ptr %7, align 8
  %18 = load ptr, ptr %8, align 8
  tail call void %16(ptr noundef %17, ptr noundef %18, i32 noundef %.sroa.0.0.copyload, i32 noundef %.sroa.3.0.copyload, i32 noundef %.sroa.2.0.copyload, i32 noundef %.sroa.4.0.copyload) #12
  br label %19

19:                                               ; preds = %9, %13
  %indvars.iv.next = add nuw nsw i64 %indvars.iv, 1
  %exitcond.not = icmp eq i64 %indvars.iv.next, %wide.trip.count
  br i1 %exitcond.not, label %._crit_edge, label %9, !llvm.loop !32

._crit_edge:                                      ; preds = %19, %3
  ret void
}